target datalayout = "e-m:e-p270:32:32-p271:32:32-p272:64:64-i64:64-i128:128-f80:128-n8:16:32:64-S128"
target triple = "x86_64-unknown-linux-gnu"

%"struct.absl::container_internal::GroupSse2Impl" = type { <2 x i64> }

; Function Attrs: mustprogress uwtable
define linkonce_odr dso_local noundef <2 x i64> @_ZN4absl18container_internal20_mm_cmpgt_epi8_fixedEDv2_xS1_(<2 x i64> noundef %a, <2 x i64> noundef %b) #2 comdat {
entry:
  %__a.addr.i = alloca <2 x i64>, align 16
  %__b.addr.i = alloca <2 x i64>, align 16
  %a.addr = alloca <2 x i64>, align 16
  %b.addr = alloca <2 x i64>, align 16
  store <2 x i64> %a, ptr %a.addr, align 16
  store <2 x i64> %b, ptr %b.addr, align 16
  %0 = load <2 x i64>, ptr %a.addr, align 16
  %1 = load <2 x i64>, ptr %b.addr, align 16
  store <2 x i64> %0, ptr %__a.addr.i, align 16
  store <2 x i64> %1, ptr %__b.addr.i, align 16
  %2 = load <2 x i64>, ptr %__a.addr.i, align 16
  %3 = bitcast <2 x i64> %2 to <16 x i8>
  %4 = load <2 x i64>, ptr %__b.addr.i, align 16
  %5 = bitcast <2 x i64> %4 to <16 x i8>
  %cmp.i = icmp sgt <16 x i8> %3, %5
  %sext.i = sext <16 x i1> %cmp.i to <16 x i8>
  %6 = bitcast <16 x i8> %sext.i to <2 x i64>
  ret <2 x i64> %6
}

; Function Attrs: mustprogress nounwind uwtable
define linkonce_odr dso_local noundef i64 @_ZN4absl18container_internal14NumClonedBytesEv() #1 comdat {
entry:
  ret i64 15
}

; Function Attrs: mustprogress uwtable
define linkonce_odr dso_local void @_ZNK4absl18container_internal13GroupSse2Impl37ConvertSpecialToEmptyAndFullToDeletedEPNS0_6ctrl_tE(ptr noundef nonnull align 16 dereferenceable(16) %this, ptr noundef %dst) #2 comdat align 2 {
entry:
  %__p.addr.i = alloca ptr, align 8
  %__b.addr.i46 = alloca <2 x i64>, align 16
  %__a.addr.i44 = alloca <2 x i64>, align 16
  %__b.addr.i45 = alloca <2 x i64>, align 16
  %__a.addr.i = alloca <2 x i64>, align 16
  %__b.addr.i43 = alloca <2 x i64>, align 16
  %.compoundliteral.i42 = alloca <2 x i64>, align 16
  %__b15.addr.i9 = alloca i8, align 1
  %__b14.addr.i10 = alloca i8, align 1
  %__b13.addr.i11 = alloca i8, align 1
  %__b12.addr.i12 = alloca i8, align 1
  %__b11.addr.i13 = alloca i8, align 1
  %__b10.addr.i14 = alloca i8, align 1
  %__b9.addr.i15 = alloca i8, align 1
  %__b8.addr.i16 = alloca i8, align 1
  %__b7.addr.i17 = alloca i8, align 1
  %__b6.addr.i18 = alloca i8, align 1
  %__b5.addr.i19 = alloca i8, align 1
  %__b4.addr.i20 = alloca i8, align 1
  %__b3.addr.i21 = alloca i8, align 1
  %__b2.addr.i22 = alloca i8, align 1
  %__b1.addr.i23 = alloca i8, align 1
  %__b0.addr.i24 = alloca i8, align 1
  %.compoundliteral.i25 = alloca <16 x i8>, align 16
  %__b15.addr.i = alloca i8, align 1
  %__b14.addr.i = alloca i8, align 1
  %__b13.addr.i = alloca i8, align 1
  %__b12.addr.i = alloca i8, align 1
  %__b11.addr.i = alloca i8, align 1
  %__b10.addr.i = alloca i8, align 1
  %__b9.addr.i = alloca i8, align 1
  %__b8.addr.i = alloca i8, align 1
  %__b7.addr.i = alloca i8, align 1
  %__b6.addr.i = alloca i8, align 1
  %__b5.addr.i = alloca i8, align 1
  %__b4.addr.i = alloca i8, align 1
  %__b3.addr.i = alloca i8, align 1
  %__b2.addr.i = alloca i8, align 1
  %__b1.addr.i = alloca i8, align 1
  %__b0.addr.i = alloca i8, align 1
  %.compoundliteral.i = alloca <16 x i8>, align 16
  %__b.addr.i7 = alloca i8, align 1
  %__b.addr.i = alloca i8, align 1
  %this.addr = alloca ptr, align 8
  %dst.addr = alloca ptr, align 8
  %msbs = alloca <2 x i64>, align 16
  %x126 = alloca <2 x i64>, align 16
  %zero = alloca <2 x i64>, align 16
  %special_mask = alloca <2 x i64>, align 16
  %res = alloca <2 x i64>, align 16
  store ptr %this, ptr %this.addr, align 8
  store ptr %dst, ptr %dst.addr, align 8
  %this1 = load ptr, ptr %this.addr, align 8
  store i8 -128, ptr %__b.addr.i7, align 1
  %0 = load i8, ptr %__b.addr.i7, align 1
  %1 = load i8, ptr %__b.addr.i7, align 1
  %2 = load i8, ptr %__b.addr.i7, align 1
  %3 = load i8, ptr %__b.addr.i7, align 1
  %4 = load i8, ptr %__b.addr.i7, align 1
  %5 = load i8, ptr %__b.addr.i7, align 1
  %6 = load i8, ptr %__b.addr.i7, align 1
  %7 = load i8, ptr %__b.addr.i7, align 1
  %8 = load i8, ptr %__b.addr.i7, align 1
  %9 = load i8, ptr %__b.addr.i7, align 1
  %10 = load i8, ptr %__b.addr.i7, align 1
  %11 = load i8, ptr %__b.addr.i7, align 1
  %12 = load i8, ptr %__b.addr.i7, align 1
  %13 = load i8, ptr %__b.addr.i7, align 1
  %14 = load i8, ptr %__b.addr.i7, align 1
  %15 = load i8, ptr %__b.addr.i7, align 1
  store i8 %0, ptr %__b15.addr.i, align 1
  store i8 %1, ptr %__b14.addr.i, align 1
  store i8 %2, ptr %__b13.addr.i, align 1
  store i8 %3, ptr %__b12.addr.i, align 1
  store i8 %4, ptr %__b11.addr.i, align 1
  store i8 %5, ptr %__b10.addr.i, align 1
  store i8 %6, ptr %__b9.addr.i, align 1
  store i8 %7, ptr %__b8.addr.i, align 1
  store i8 %8, ptr %__b7.addr.i, align 1
  store i8 %9, ptr %__b6.addr.i, align 1
  store i8 %10, ptr %__b5.addr.i, align 1
  store i8 %11, ptr %__b4.addr.i, align 1
  store i8 %12, ptr %__b3.addr.i, align 1
  store i8 %13, ptr %__b2.addr.i, align 1
  store i8 %14, ptr %__b1.addr.i, align 1
  store i8 %15, ptr %__b0.addr.i, align 1
  %16 = load i8, ptr %__b0.addr.i, align 1
  %vecinit.i = insertelement <16 x i8> undef, i8 %16, i32 0
  %17 = load i8, ptr %__b1.addr.i, align 1
  %vecinit1.i = insertelement <16 x i8> %vecinit.i, i8 %17, i32 1
  %18 = load i8, ptr %__b2.addr.i, align 1
  %vecinit2.i = insertelement <16 x i8> %vecinit1.i, i8 %18, i32 2
  %19 = load i8, ptr %__b3.addr.i, align 1
  %vecinit3.i = insertelement <16 x i8> %vecinit2.i, i8 %19, i32 3
  %20 = load i8, ptr %__b4.addr.i, align 1
  %vecinit4.i = insertelement <16 x i8> %vecinit3.i, i8 %20, i32 4
  %21 = load i8, ptr %__b5.addr.i, align 1
  %vecinit5.i = insertelement <16 x i8> %vecinit4.i, i8 %21, i32 5
  %22 = load i8, ptr %__b6.addr.i, align 1
  %vecinit6.i = insertelement <16 x i8> %vecinit5.i, i8 %22, i32 6
  %23 = load i8, ptr %__b7.addr.i, align 1
  %vecinit7.i = insertelement <16 x i8> %vecinit6.i, i8 %23, i32 7
  %24 = load i8, ptr %__b8.addr.i, align 1
  %vecinit8.i = insertelement <16 x i8> %vecinit7.i, i8 %24, i32 8
  %25 = load i8, ptr %__b9.addr.i, align 1
  %vecinit9.i = insertelement <16 x i8> %vecinit8.i, i8 %25, i32 9
  %26 = load i8, ptr %__b10.addr.i, align 1
  %vecinit10.i = insertelement <16 x i8> %vecinit9.i, i8 %26, i32 10
  %27 = load i8, ptr %__b11.addr.i, align 1
  %vecinit11.i = insertelement <16 x i8> %vecinit10.i, i8 %27, i32 11
  %28 = load i8, ptr %__b12.addr.i, align 1
  %vecinit12.i = insertelement <16 x i8> %vecinit11.i, i8 %28, i32 12
  %29 = load i8, ptr %__b13.addr.i, align 1
  %vecinit13.i = insertelement <16 x i8> %vecinit12.i, i8 %29, i32 13
  %30 = load i8, ptr %__b14.addr.i, align 1
  %vecinit14.i = insertelement <16 x i8> %vecinit13.i, i8 %30, i32 14
  %31 = load i8, ptr %__b15.addr.i, align 1
  %vecinit15.i = insertelement <16 x i8> %vecinit14.i, i8 %31, i32 15
  store <16 x i8> %vecinit15.i, ptr %.compoundliteral.i, align 16
  %32 = load <16 x i8>, ptr %.compoundliteral.i, align 16
  %33 = bitcast <16 x i8> %32 to <2 x i64>
  store <2 x i64> %33, ptr %msbs, align 16
  store i8 126, ptr %__b.addr.i, align 1
  %34 = load i8, ptr %__b.addr.i, align 1
  %35 = load i8, ptr %__b.addr.i, align 1
  %36 = load i8, ptr %__b.addr.i, align 1
  %37 = load i8, ptr %__b.addr.i, align 1
  %38 = load i8, ptr %__b.addr.i, align 1
  %39 = load i8, ptr %__b.addr.i, align 1
  %40 = load i8, ptr %__b.addr.i, align 1
  %41 = load i8, ptr %__b.addr.i, align 1
  %42 = load i8, ptr %__b.addr.i, align 1
  %43 = load i8, ptr %__b.addr.i, align 1
  %44 = load i8, ptr %__b.addr.i, align 1
  %45 = load i8, ptr %__b.addr.i, align 1
  %46 = load i8, ptr %__b.addr.i, align 1
  %47 = load i8, ptr %__b.addr.i, align 1
  %48 = load i8, ptr %__b.addr.i, align 1
  %49 = load i8, ptr %__b.addr.i, align 1
  store i8 %34, ptr %__b15.addr.i9, align 1
  store i8 %35, ptr %__b14.addr.i10, align 1
  store i8 %36, ptr %__b13.addr.i11, align 1
  store i8 %37, ptr %__b12.addr.i12, align 1
  store i8 %38, ptr %__b11.addr.i13, align 1
  store i8 %39, ptr %__b10.addr.i14, align 1
  store i8 %40, ptr %__b9.addr.i15, align 1
  store i8 %41, ptr %__b8.addr.i16, align 1
  store i8 %42, ptr %__b7.addr.i17, align 1
  store i8 %43, ptr %__b6.addr.i18, align 1
  store i8 %44, ptr %__b5.addr.i19, align 1
  store i8 %45, ptr %__b4.addr.i20, align 1
  store i8 %46, ptr %__b3.addr.i21, align 1
  store i8 %47, ptr %__b2.addr.i22, align 1
  store i8 %48, ptr %__b1.addr.i23, align 1
  store i8 %49, ptr %__b0.addr.i24, align 1
  %50 = load i8, ptr %__b0.addr.i24, align 1
  %vecinit.i26 = insertelement <16 x i8> undef, i8 %50, i32 0
  %51 = load i8, ptr %__b1.addr.i23, align 1
  %vecinit1.i27 = insertelement <16 x i8> %vecinit.i26, i8 %51, i32 1
  %52 = load i8, ptr %__b2.addr.i22, align 1
  %vecinit2.i28 = insertelement <16 x i8> %vecinit1.i27, i8 %52, i32 2
  %53 = load i8, ptr %__b3.addr.i21, align 1
  %vecinit3.i29 = insertelement <16 x i8> %vecinit2.i28, i8 %53, i32 3
  %54 = load i8, ptr %__b4.addr.i20, align 1
  %vecinit4.i30 = insertelement <16 x i8> %vecinit3.i29, i8 %54, i32 4
  %55 = load i8, ptr %__b5.addr.i19, align 1
  %vecinit5.i31 = insertelement <16 x i8> %vecinit4.i30, i8 %55, i32 5
  %56 = load i8, ptr %__b6.addr.i18, align 1
  %vecinit6.i32 = insertelement <16 x i8> %vecinit5.i31, i8 %56, i32 6
  %57 = load i8, ptr %__b7.addr.i17, align 1
  %vecinit7.i33 = insertelement <16 x i8> %vecinit6.i32, i8 %57, i32 7
  %58 = load i8, ptr %__b8.addr.i16, align 1
  %vecinit8.i34 = insertelement <16 x i8> %vecinit7.i33, i8 %58, i32 8
  %59 = load i8, ptr %__b9.addr.i15, align 1
  %vecinit9.i35 = insertelement <16 x i8> %vecinit8.i34, i8 %59, i32 9
  %60 = load i8, ptr %__b10.addr.i14, align 1
  %vecinit10.i36 = insertelement <16 x i8> %vecinit9.i35, i8 %60, i32 10
  %61 = load i8, ptr %__b11.addr.i13, align 1
  %vecinit11.i37 = insertelement <16 x i8> %vecinit10.i36, i8 %61, i32 11
  %62 = load i8, ptr %__b12.addr.i12, align 1
  %vecinit12.i38 = insertelement <16 x i8> %vecinit11.i37, i8 %62, i32 12
  %63 = load i8, ptr %__b13.addr.i11, align 1
  %vecinit13.i39 = insertelement <16 x i8> %vecinit12.i38, i8 %63, i32 13
  %64 = load i8, ptr %__b14.addr.i10, align 1
  %vecinit14.i40 = insertelement <16 x i8> %vecinit13.i39, i8 %64, i32 14
  %65 = load i8, ptr %__b15.addr.i9, align 1
  %vecinit15.i41 = insertelement <16 x i8> %vecinit14.i40, i8 %65, i32 15
  store <16 x i8> %vecinit15.i41, ptr %.compoundliteral.i25, align 16
  %66 = load <16 x i8>, ptr %.compoundliteral.i25, align 16
  %67 = bitcast <16 x i8> %66 to <2 x i64>
  store <2 x i64> %67, ptr %x126, align 16
  store <2 x i64> zeroinitializer, ptr %.compoundliteral.i42, align 16
  %68 = load <2 x i64>, ptr %.compoundliteral.i42, align 16
  store <2 x i64> %68, ptr %zero, align 16
  %69 = load <2 x i64>, ptr %zero, align 16
  %ctrl = getelementptr inbounds %"struct.absl::container_internal::GroupSse2Impl", ptr %this1, i32 0, i32 0
  %70 = load <2 x i64>, ptr %ctrl, align 16
  %call4 = call noundef <2 x i64> @_ZN4absl18container_internal20_mm_cmpgt_epi8_fixedEDv2_xS1_(<2 x i64> noundef %69, <2 x i64> noundef %70)
  store <2 x i64> %call4, ptr %special_mask, align 16
  %71 = load <2 x i64>, ptr %msbs, align 16
  %72 = load <2 x i64>, ptr %special_mask, align 16
  %73 = load <2 x i64>, ptr %x126, align 16
  store <2 x i64> %72, ptr %__a.addr.i44, align 16
  store <2 x i64> %73, ptr %__b.addr.i45, align 16
  %74 = load <2 x i64>, ptr %__a.addr.i44, align 16
  %not.i = xor <2 x i64> %74, <i64 -1, i64 -1>
  %75 = load <2 x i64>, ptr %__b.addr.i45, align 16
  %and.i = and <2 x i64> %not.i, %75
  store <2 x i64> %71, ptr %__a.addr.i, align 16
  store <2 x i64> %and.i, ptr %__b.addr.i43, align 16
  %76 = load <2 x i64>, ptr %__a.addr.i, align 16
  %77 = load <2 x i64>, ptr %__b.addr.i43, align 16
  %or.i = or <2 x i64> %76, %77
  store <2 x i64> %or.i, ptr %res, align 16
  %78 = load ptr, ptr %dst.addr, align 8
  %79 = load <2 x i64>, ptr %res, align 16
  store ptr %78, ptr %__p.addr.i, align 8
  store <2 x i64> %79, ptr %__b.addr.i46, align 16
  %80 = load <2 x i64>, ptr %__b.addr.i46, align 16
  %81 = load ptr, ptr %__p.addr.i, align 8
  store <2 x i64> %80, ptr %81, align 1
  ret void
}

; Function Attrs: mustprogress uwtable
define linkonce_odr dso_local void @_ZN4absl18container_internal13GroupSse2ImplC2EPKNS0_6ctrl_tE(ptr noundef nonnull align 16 dereferenceable(16) %this, ptr noundef %pos) unnamed_addr #2 comdat align 2 {
entry:
  %__p.addr.i = alloca ptr, align 8
  %this.addr = alloca ptr, align 8
  %pos.addr = alloca ptr, align 8
  store ptr %this, ptr %this.addr, align 8
  store ptr %pos, ptr %pos.addr, align 8
  %this1 = load ptr, ptr %this.addr, align 8
  %0 = load ptr, ptr %pos.addr, align 8
  store ptr %0, ptr %__p.addr.i, align 8
  %1 = load ptr, ptr %__p.addr.i, align 8
  %2 = load <2 x i64>, ptr %1, align 1
  %ctrl = getelementptr inbounds %"struct.absl::container_internal::GroupSse2Impl", ptr %this1, i32 0, i32 0
  store <2 x i64> %2, ptr %ctrl, align 16
  ret void
}

; Function Attrs: mustprogress uwtable
define dso_local void @_ZN4absl18container_internal37ConvertDeletedToEmptyAndFullToDeletedEPNS0_6ctrl_tEm(ptr noundef %ctrl, i64 noundef %capacity) #0 {
entry:
  %ctrl.addr = alloca ptr, align 8
  %capacity.addr = alloca i64, align 8
  %pos = alloca ptr, align 8
  %ref.tmp = alloca %"struct.absl::container_internal::GroupSse2Impl", align 16
  store ptr %ctrl, ptr %ctrl.addr, align 8
  store i64 %capacity, ptr %capacity.addr, align 8
  %0 = load ptr, ptr %ctrl.addr, align 8
  store ptr %0, ptr %pos, align 8
  br label %for.cond

for.cond:                                         ; preds = %for.inc, %entry
  %1 = load ptr, ptr %pos, align 8
  %2 = load ptr, ptr %ctrl.addr, align 8
  %3 = load i64, ptr %capacity.addr, align 8
  %add.ptr = getelementptr inbounds i8, ptr %2, i64 %3
  %cmp = icmp ult ptr %1, %add.ptr
  br i1 %cmp, label %for.body, label %for.end

for.body:                                         ; preds = %for.cond
  %4 = load ptr, ptr %pos, align 8
  call void @_ZN4absl18container_internal13GroupSse2ImplC2EPKNS0_6ctrl_tE(ptr noundef nonnull align 16 dereferenceable(16) %ref.tmp, ptr noundef %4)
  %5 = load ptr, ptr %pos, align 8
  call void @_ZNK4absl18container_internal13GroupSse2Impl37ConvertSpecialToEmptyAndFullToDeletedEPNS0_6ctrl_tE(ptr noundef nonnull align 16 dereferenceable(16) %ref.tmp, ptr noundef %5)
  br label %for.inc

for.inc:                                          ; preds = %for.body
  %6 = load ptr, ptr %pos, align 8
  %add.ptr1 = getelementptr inbounds i8, ptr %6, i64 16
  store ptr %add.ptr1, ptr %pos, align 8
  br label %for.cond, !llvm.loop !7

for.end:                                          ; preds = %for.cond
  %7 = load ptr, ptr %ctrl.addr, align 8
  %8 = load i64, ptr %capacity.addr, align 8
  %add.ptr2 = getelementptr inbounds i8, ptr %7, i64 %8
  %add.ptr3 = getelementptr inbounds i8, ptr %add.ptr2, i64 1
  %9 = load ptr, ptr %ctrl.addr, align 8
  %call = call noundef i64 @_ZN4absl18container_internal14NumClonedBytesEv()
  call void @llvm.memcpy.p0.p0.i64(ptr align 1 %add.ptr3, ptr align 1 %9, i64 %call, i1 false)
  %10 = load ptr, ptr %ctrl.addr, align 8
  %11 = load i64, ptr %capacity.addr, align 8
  %arrayidx = getelementptr inbounds i8, ptr %10, i64 %11
  store i8 -1, ptr %arrayidx, align 1
  ret void
}