; Function Attrs: mustprogress nofree norecurse nosync nounwind memory(argmem: readwrite) uwtable
define dso_local void @_ZN4absl18container_internal37ConvertDeletedToEmptyAndFullToDeletedEPNS0_6ctrl_tEm(ptr noundef %ctrl, i64 noundef %capacity) local_unnamed_addr #4 {
entry:
  %add.ptr = getelementptr inbounds i8, ptr %ctrl, i64 %capacity
  %cmp10 = icmp sgt i64 %capacity, 0
  br i1 %cmp10, label %for.body, label %for.end

for.body:                                         ; preds = %entry, %for.body
  %pos.011 = phi ptr [ %add.ptr1, %for.body ], [ %ctrl, %entry ]
  %0 = load <16 x i8>, ptr %pos.011, align 1
  %.lobit.i = ashr <16 x i8> %0, splat (i8 7)
  %1 = bitcast <16 x i8> %.lobit.i to <2 x i64>
  %not.i.i = and <2 x i64> %1, splat (i64 9114861777597660798)
  %or.i.i = xor <2 x i64> %not.i.i, splat (i64 -72340172838076674)
  store <2 x i64> %or.i.i, ptr %pos.011, align 1
  %add.ptr1 = getelementptr inbounds nuw i8, ptr %pos.011, i64 16
  %cmp = icmp ult ptr %add.ptr1, %add.ptr
  br i1 %cmp, label %for.body, label %for.end, !llvm.loop !10

for.end:                                          ; preds = %for.body, %entry
  %add.ptr3 = getelementptr inbounds nuw i8, ptr %add.ptr, i64 1
  tail call void @llvm.memcpy.p0.p0.i64(ptr noundef nonnull align 1 dereferenceable(15) %add.ptr3, ptr noundef nonnull align 1 dereferenceable(15) %ctrl, i64 15, i1 false)
  store i8 -1, ptr %add.ptr, align 1
  ret void
}